; Function Attrs: mustprogress nounwind null_pointer_is_valid sspstrong uwtable
define internal void @"_ZN9QtPrivate18QFunctorSlotObjectIZN19WiresharkMainWindow25connectCaptureMenuActionsEvE3$_1Li0ENS_4ListIJEEEvE4implEiPNS_15QSlotObjectBaseEP7QObjectPPvPb"(i32 noundef %0, ptr noundef %1, ptr readnone captures(none) %2, ptr readnone captures(none) %3, ptr readnone captures(none) %4) #15 align 2 {
  %cond = icmp ne i32 %0, 0
  %6 = icmp eq ptr %1, null
  %or.cond = or i1 %cond, %6
  br i1 %or.cond, label %8, label %7

7:                                                ; preds = %5
  tail call void @_ZdlPvm(ptr noundef nonnull %1, i64 noundef 24) #26
  br label %8

8:                                                ; preds = %5, %7
  ret void
}